; Function Attrs: nounwind uwtable
define internal void @opcbfunc(i32 %0, ptr noundef %1) #0 {
  fence acquire
  %3 = getelementptr inbounds nuw i8, ptr %1, i64 120
  %4 = tail call i32 @pthread_mutex_lock(ptr noundef nonnull %3) #23
  %5 = getelementptr inbounds nuw i8, ptr %1, i64 208
  store volatile i8 0, ptr %5, align 8, !tbaa !139
  fence release
  %6 = getelementptr inbounds nuw i8, ptr %1, i64 160
  %7 = tail call i32 @pthread_cond_broadcast(ptr noundef nonnull %6) #23
  %8 = tail call i32 @pthread_mutex_unlock(ptr noundef nonnull %3) #23
  ret void
}